target datalayout = "e-m:e-p270:32:32-p271:32:32-p272:64:64-i64:64-i128:128-f80:128-n8:16:32:64-S128"
target triple = "x86_64-pc-linux-gnu"

%struct.AVFilterGraphSegment = type { ptr, ptr, i64, ptr }
%struct.AVFilterChain = type { ptr, i64 }
%struct.AVFilterParams = type { ptr, ptr, ptr, ptr, ptr, i32, ptr, i32 }

@__func__.avfilter_graph_segment_apply_opts = private unnamed_addr constant [34 x i8] c"avfilter_graph_segment_apply_opts\00", align 1
@.str.26 = private unnamed_addr constant [117 x i8] c"A creation-pending filter '%s' present in the segment. All filters must be created or disabled before calling %s().\0A\00", align 1

; Function Attrs: nounwind uwtable
define internal i32 @fail_creation_pending(ptr noundef %0, ptr noundef %1, ptr noundef %2) #0 {
  %4 = alloca ptr, align 8
  %5 = alloca ptr, align 8
  %6 = alloca ptr, align 8
  store ptr %0, ptr %4, align 8, !tbaa !23
  store ptr %1, ptr %5, align 8, !tbaa !21
  store ptr %2, ptr %6, align 8, !tbaa !21
  %7 = load ptr, ptr %4, align 8, !tbaa !23
  %8 = getelementptr inbounds nuw %struct.AVFilterGraphSegment, ptr %7, i32 0, i32 0
  %9 = load ptr, ptr %8, align 8, !tbaa !34
  %10 = load ptr, ptr %5, align 8, !tbaa !21
  %11 = load ptr, ptr %6, align 8, !tbaa !21
  call void (ptr, i32, ptr, ...) @av_log(ptr noundef %9, i32 noundef 16, ptr noundef @.str.26, ptr noundef %10, ptr noundef %11)
  ret i32 -22
}

; Function Attrs: nounwind uwtable
define i32 @avfilter_graph_segment_apply_opts(ptr noundef %0, i32 noundef %1) #0 {
  %3 = alloca i32, align 4
  %4 = alloca ptr, align 8
  %5 = alloca i32, align 4
  %6 = alloca i32, align 4
  %7 = alloca i32, align 4
  %8 = alloca i32, align 4
  %9 = alloca i64, align 8
  %10 = alloca ptr, align 8
  %11 = alloca i64, align 8
  %12 = alloca ptr, align 8
  store ptr %0, ptr %4, align 8, !tbaa !23
  store i32 %1, ptr %5, align 4, !tbaa !22
  call void @llvm.lifetime.start.p0(i64 4, ptr %6) #7
  call void @llvm.lifetime.start.p0(i64 4, ptr %7) #7
  store i32 0, ptr %7, align 4, !tbaa !22
  %13 = load i32, ptr %5, align 4, !tbaa !22
  %14 = icmp ne i32 %13, 0
  br i1 %14, label %15, label %16

15:                                               ; preds = %2
  store i32 -38, ptr %3, align 4
  store i32 1, ptr %8, align 4
  br label %106

16:                                               ; preds = %2
  call void @llvm.lifetime.start.p0(i64 8, ptr %9) #7
  store i64 0, ptr %9, align 8, !tbaa !43
  br label %17

17:                                               ; preds = %97, %16
  %18 = load i64, ptr %9, align 8, !tbaa !43
  %19 = load ptr, ptr %4, align 8, !tbaa !23
  %20 = getelementptr inbounds nuw %struct.AVFilterGraphSegment, ptr %19, i32 0, i32 2
  %21 = load i64, ptr %20, align 8, !tbaa !41
  %22 = icmp ult i64 %18, %21
  br i1 %22, label %24, label %23

23:                                               ; preds = %17
  store i32 2, ptr %8, align 4
  br label %100

24:                                               ; preds = %17
  call void @llvm.lifetime.start.p0(i64 8, ptr %10) #7
  %25 = load ptr, ptr %4, align 8, !tbaa !23
  %26 = getelementptr inbounds nuw %struct.AVFilterGraphSegment, ptr %25, i32 0, i32 1
  %27 = load ptr, ptr %26, align 8, !tbaa !44
  %28 = load i64, ptr %9, align 8, !tbaa !43
  %29 = getelementptr inbounds nuw ptr, ptr %27, i64 %28
  %30 = load ptr, ptr %29, align 8, !tbaa !39
  store ptr %30, ptr %10, align 8, !tbaa !39
  call void @llvm.lifetime.start.p0(i64 8, ptr %11) #7
  store i64 0, ptr %11, align 8, !tbaa !43
  br label %31

31:                                               ; preds = %88, %24
  %32 = load i64, ptr %11, align 8, !tbaa !43
  %33 = load ptr, ptr %10, align 8, !tbaa !39
  %34 = getelementptr inbounds nuw %struct.AVFilterChain, ptr %33, i32 0, i32 1
  %35 = load i64, ptr %34, align 8, !tbaa !65
  %36 = icmp ult i64 %32, %35
  br i1 %36, label %38, label %37

37:                                               ; preds = %31
  store i32 5, ptr %8, align 4
  br label %91

38:                                               ; preds = %31
  call void @llvm.lifetime.start.p0(i64 8, ptr %12) #7
  %39 = load ptr, ptr %10, align 8, !tbaa !39
  %40 = getelementptr inbounds nuw %struct.AVFilterChain, ptr %39, i32 0, i32 0
  %41 = load ptr, ptr %40, align 8, !tbaa !68
  %42 = load i64, ptr %11, align 8, !tbaa !43
  %43 = getelementptr inbounds nuw ptr, ptr %41, i64 %42
  %44 = load ptr, ptr %43, align 8, !tbaa !72
  store ptr %44, ptr %12, align 8, !tbaa !72
  %45 = load ptr, ptr %12, align 8, !tbaa !72
  %46 = getelementptr inbounds nuw %struct.AVFilterParams, ptr %45, i32 0, i32 1
  %47 = load ptr, ptr %46, align 8, !tbaa !77
  %48 = icmp ne ptr %47, null
  br i1 %48, label %49, label %55

49:                                               ; preds = %38
  %50 = load ptr, ptr %4, align 8, !tbaa !23
  %51 = load ptr, ptr %12, align 8, !tbaa !72
  %52 = getelementptr inbounds nuw %struct.AVFilterParams, ptr %51, i32 0, i32 1
  %53 = load ptr, ptr %52, align 8, !tbaa !77
  %54 = call i32 @fail_creation_pending(ptr noundef %50, ptr noundef %53, ptr noundef @__func__.avfilter_graph_segment_apply_opts)
  store i32 %54, ptr %3, align 4
  store i32 1, ptr %8, align 4
  br label %85

55:                                               ; preds = %38
  %56 = load ptr, ptr %12, align 8, !tbaa !72
  %57 = getelementptr inbounds nuw %struct.AVFilterParams, ptr %56, i32 0, i32 0
  %58 = load ptr, ptr %57, align 8, !tbaa !82
  %59 = icmp ne ptr %58, null
  br i1 %59, label %60, label %65

60:                                               ; preds = %55
  %61 = load ptr, ptr %12, align 8, !tbaa !72
  %62 = getelementptr inbounds nuw %struct.AVFilterParams, ptr %61, i32 0, i32 3
  %63 = load ptr, ptr %62, align 8, !tbaa !86
  %64 = icmp ne ptr %63, null
  br i1 %64, label %66, label %65

65:                                               ; preds = %60, %55
  store i32 7, ptr %8, align 4
  br label %85

66:                                               ; preds = %60
  %67 = load ptr, ptr %12, align 8, !tbaa !72
  %68 = getelementptr inbounds nuw %struct.AVFilterParams, ptr %67, i32 0, i32 0
  %69 = load ptr, ptr %68, align 8, !tbaa !82
  %70 = load ptr, ptr %12, align 8, !tbaa !72
  %71 = getelementptr inbounds nuw %struct.AVFilterParams, ptr %70, i32 0, i32 3
  %72 = call i32 @av_opt_set_dict2(ptr noundef %69, ptr noundef %71, i32 noundef 1)
  store i32 %72, ptr %6, align 4, !tbaa !22
  %73 = load i32, ptr %6, align 4, !tbaa !22
  %74 = icmp slt i32 %73, 0
  br i1 %74, label %75, label %77

75:                                               ; preds = %66
  %76 = load i32, ptr %6, align 4, !tbaa !22
  store i32 %76, ptr %3, align 4
  store i32 1, ptr %8, align 4
  br label %85

77:                                               ; preds = %66
  %78 = load ptr, ptr %12, align 8, !tbaa !72
  %79 = getelementptr inbounds nuw %struct.AVFilterParams, ptr %78, i32 0, i32 3
  %80 = load ptr, ptr %79, align 8, !tbaa !86
  %81 = call i32 @av_dict_count(ptr noundef %80)
  %82 = icmp ne i32 %81, 0
  br i1 %82, label %83, label %84

83:                                               ; preds = %77
  store i32 1, ptr %7, align 4, !tbaa !22
  br label %84

84:                                               ; preds = %83, %77
  store i32 0, ptr %8, align 4
  br label %85

85:                                               ; preds = %84, %75, %65, %49
  call void @llvm.lifetime.end.p0(i64 8, ptr %12) #7
  %86 = load i32, ptr %8, align 4
  switch i32 %86, label %91 [
    i32 0, label %87
    i32 7, label %88
  ]

87:                                               ; preds = %85
  br label %88

88:                                               ; preds = %87, %85
  %89 = load i64, ptr %11, align 8, !tbaa !43
  %90 = add i64 %89, 1
  store i64 %90, ptr %11, align 8, !tbaa !43
  br label %31, !llvm.loop !87

91:                                               ; preds = %85, %37
  call void @llvm.lifetime.end.p0(i64 8, ptr %11) #7
  %92 = load i32, ptr %8, align 4
  switch i32 %92, label %94 [
    i32 5, label %93
  ]

93:                                               ; preds = %91
  store i32 0, ptr %8, align 4
  br label %94

94:                                               ; preds = %93, %91
  call void @llvm.lifetime.end.p0(i64 8, ptr %10) #7
  %95 = load i32, ptr %8, align 4
  switch i32 %95, label %100 [
    i32 0, label %96
  ]

96:                                               ; preds = %94
  br label %97

97:                                               ; preds = %96
  %98 = load i64, ptr %9, align 8, !tbaa !43
  %99 = add i64 %98, 1
  store i64 %99, ptr %9, align 8, !tbaa !43
  br label %17, !llvm.loop !88

100:                                              ; preds = %94, %23
  call void @llvm.lifetime.end.p0(i64 8, ptr %9) #7
  %101 = load i32, ptr %8, align 4
  switch i32 %101, label %106 [
    i32 2, label %102
  ]

102:                                              ; preds = %100
  %103 = load i32, ptr %7, align 4, !tbaa !22
  %104 = icmp ne i32 %103, 0
  %105 = select i1 %104, i32 -1414549496, i32 0
  store i32 %105, ptr %3, align 4
  store i32 1, ptr %8, align 4
  br label %106

106:                                              ; preds = %102, %100, %15
  call void @llvm.lifetime.end.p0(i64 4, ptr %7) #7
  call void @llvm.lifetime.end.p0(i64 4, ptr %6) #7
  %107 = load i32, ptr %3, align 4
  ret i32 %107
}