; Function Attrs: nounwind uwtable
define range(i32 -2147483648, 1) i32 @avfilter_graph_segment_apply_opts(ptr noundef readonly captures(none) %0, i32 noundef %1) local_unnamed_addr #0 {
  %.not = icmp eq i32 %1, 0
  br i1 %.not, label %.preheader, label %.loopexit

.preheader:                                       ; preds = %2
  %3 = getelementptr inbounds nuw i8, ptr %0, i64 16
  %4 = load i64, ptr %3, align 8, !tbaa !34
  %.not4671.not = icmp eq i64 %4, 0
  br i1 %.not4671.not, label %.loopexit, label %.lr.ph74

.lr.ph74:                                         ; preds = %.preheader
  %5 = getelementptr inbounds nuw i8, ptr %0, i64 8
  br label %6

6:                                                ; preds = %.lr.ph74, %._crit_edge
  %7 = phi i64 [ %4, %.lr.ph74 ], [ %35, %._crit_edge ]
  %.02973 = phi i32 [ 0, %.lr.ph74 ], [ %.231.lcssa, %._crit_edge ]
  %.03572 = phi i64 [ 0, %.lr.ph74 ], [ %36, %._crit_edge ]
  %8 = load ptr, ptr %5, align 8, !tbaa !52
  %9 = getelementptr inbounds nuw ptr, ptr %8, i64 %.03572
  %10 = load ptr, ptr %9, align 8, !tbaa !35
  %11 = getelementptr inbounds nuw i8, ptr %10, i64 8
  %12 = load i64, ptr %11, align 8, !tbaa !47
  %.not76 = icmp eq i64 %12, 0
  br i1 %.not76, label %._crit_edge, label %.lr.ph

.lr.ph:                                           ; preds = %6, %31
  %13 = phi i64 [ %32, %31 ], [ %12, %6 ]
  %.02870 = phi i64 [ %33, %31 ], [ 0, %6 ]
  %.23169 = phi i32 [ %.433.ph, %31 ], [ %.02973, %6 ]
  %14 = load ptr, ptr %10, align 8, !tbaa !50
  %15 = getelementptr inbounds nuw ptr, ptr %14, i64 %.02870
  %16 = load ptr, ptr %15, align 8, !tbaa !37
  %17 = getelementptr inbounds nuw i8, ptr %16, i64 8
  %18 = load ptr, ptr %17, align 8, !tbaa !39
  %.not42 = icmp eq ptr %18, null
  br i1 %.not42, label %20, label %19

19:                                               ; preds = %.lr.ph
  %.val = load ptr, ptr %0, align 8, !tbaa !27
  tail call void (ptr, i32, ptr, ...) @av_log(ptr noundef %.val, i32 noundef 16, ptr noundef nonnull @.str.26, ptr noundef nonnull %18, ptr noundef nonnull @__func__.avfilter_graph_segment_apply_opts) #7
  br label %.loopexit

20:                                               ; preds = %.lr.ph
  %21 = load ptr, ptr %16, align 8, !tbaa !53
  %.not43 = icmp eq ptr %21, null
  br i1 %.not43, label %31, label %22

22:                                               ; preds = %20
  %23 = getelementptr inbounds nuw i8, ptr %16, i64 24
  %24 = load ptr, ptr %23, align 8, !tbaa !54
  %.not44 = icmp eq ptr %24, null
  br i1 %.not44, label %31, label %25

25:                                               ; preds = %22
  %26 = tail call i32 @av_opt_set_dict2(ptr noundef nonnull %21, ptr noundef nonnull %23, i32 noundef 1) #7
  %27 = icmp slt i32 %26, 0
  br i1 %27, label %.loopexit, label %28

28:                                               ; preds = %25
  %29 = load ptr, ptr %23, align 8, !tbaa !54
  %30 = tail call i32 @av_dict_count(ptr noundef %29) #7
  %.not45 = icmp eq i32 %30, 0
  %spec.select = select i1 %.not45, i32 %.23169, i32 1
  %.pre = load i64, ptr %11, align 8, !tbaa !47
  br label %31

31:                                               ; preds = %28, %22, %20
  %32 = phi i64 [ %13, %20 ], [ %13, %22 ], [ %.pre, %28 ]
  %.433.ph = phi i32 [ %.23169, %20 ], [ %.23169, %22 ], [ %spec.select, %28 ]
  %33 = add nuw i64 %.02870, 1
  %34 = icmp ult i64 %33, %32
  br i1 %34, label %.lr.ph, label %._crit_edge.loopexit, !llvm.loop !93

._crit_edge.loopexit:                             ; preds = %31
  %.pre80 = load i64, ptr %3, align 8, !tbaa !34
  br label %._crit_edge

._crit_edge:                                      ; preds = %._crit_edge.loopexit, %6
  %35 = phi i64 [ %7, %6 ], [ %.pre80, %._crit_edge.loopexit ]
  %.231.lcssa = phi i32 [ %.02973, %6 ], [ %.433.ph, %._crit_edge.loopexit ]
  %36 = add nuw i64 %.03572, 1
  %.not46 = icmp ult i64 %36, %35
  br i1 %.not46, label %6, label %.thread59.loopexit, !llvm.loop !94

.thread59.loopexit:                               ; preds = %._crit_edge
  %37 = icmp eq i32 %.231.lcssa, 0
  %38 = select i1 %37, i32 0, i32 -1414549496
  br label %.loopexit

.loopexit:                                        ; preds = %25, %.preheader, %.thread59.loopexit, %19, %2
  %.0 = phi i32 [ -38, %2 ], [ -22, %19 ], [ 0, %.preheader ], [ %38, %.thread59.loopexit ], [ %26, %25 ]
  ret i32 %.0
}